target datalayout = "e-m:e-p270:32:32-p271:32:32-p272:64:64-i64:64-i128:128-f80:128-n8:16:32:64-S128"
target triple = "x86_64-pc-linux-gnu"

%struct.http_context_t = type { i32, ptr, ptr, ptr, ptr, ptr }
%struct.send_http_response_args_t = type { ptr, i16, i16, i32, ptr, ptr, i64, ptr }
%struct.request_t = type { i32, ptr, ptr, ptr, ptr, i32, i8, i32, ptr, ptr, i64, i64, ptr, ptr, ptr }
%struct.http_parser = type { i32, i32, i64, i16, i16, i32, ptr }

@.str = private unnamed_addr constant [11 x i8] c"Connection\00", align 1
@.str.1 = private unnamed_addr constant [6 x i8] c"Close\00", align 1
@.str.18 = private unnamed_addr constant [9 x i8] c"%s: %s\0D\0A\00", align 1

; Function Attrs: nounwind uwtable
define internal ptr @_fmt_header(ptr noundef %0, ptr noundef %1) #0 {
  %3 = alloca ptr, align 8
  %4 = alloca ptr, align 8
  store ptr %0, ptr %3, align 8
  store ptr %1, ptr %4, align 8
  %5 = load ptr, ptr %3, align 8
  %6 = load ptr, ptr %4, align 8
  %7 = call ptr (ptr, ...) @xstrdup_printf(ptr noundef @.str.18, ptr noundef %5, ptr noundef %6)
  ret ptr %7
}

; Function Attrs: nounwind uwtable
define internal i32 @_write_fmt_header(ptr noundef %0, ptr noundef %1, ptr noundef %2) #0 {
  %4 = alloca ptr, align 8
  %5 = alloca ptr, align 8
  %6 = alloca ptr, align 8
  %7 = alloca ptr, align 8
  %8 = alloca i32, align 4
  store ptr %0, ptr %4, align 8
  store ptr %1, ptr %5, align 8
  store ptr %2, ptr %6, align 8
  call void @llvm.lifetime.start.p0(i64 8, ptr %7) #8
  %9 = load ptr, ptr %5, align 8
  %10 = load ptr, ptr %6, align 8
  %11 = call ptr @_fmt_header(ptr noundef %9, ptr noundef %10)
  store ptr %11, ptr %7, align 8
  call void @llvm.lifetime.start.p0(i64 4, ptr %8) #8
  %12 = load ptr, ptr %4, align 8
  %13 = load ptr, ptr %7, align 8
  %14 = load ptr, ptr %7, align 8
  %15 = call i64 @strlen(ptr noundef %14) #9
  %16 = call i32 @conmgr_queue_write_data(ptr noundef %12, ptr noundef %13, i64 noundef %15)
  store i32 %16, ptr %8, align 4
  call void @slurm_xfree(ptr noundef %7)
  %17 = load i32, ptr %8, align 4
  call void @llvm.lifetime.end.p0(i64 4, ptr %8) #8
  call void @llvm.lifetime.end.p0(i64 8, ptr %7) #8
  ret i32 %17
}

; Function Attrs: nounwind uwtable
define dso_local i32 @send_http_connection_close(ptr noundef %0) #0 {
  %2 = alloca ptr, align 8
  store ptr %0, ptr %2, align 8
  %3 = load ptr, ptr %2, align 8
  %4 = getelementptr inbounds nuw %struct.http_context_t, ptr %3, i32 0, i32 1
  %5 = load ptr, ptr %4, align 8
  %6 = call i32 @_write_fmt_header(ptr noundef %5, ptr noundef @.str, ptr noundef @.str.1)
  ret i32 %6
}

; Function Attrs: nounwind uwtable
define internal i32 @_send_reject(ptr noundef %0, i32 noundef %1) #0 {
  %3 = alloca ptr, align 8
  %4 = alloca i32, align 4
  %5 = alloca ptr, align 8
  %6 = alloca %struct.send_http_response_args_t, align 8
  store ptr %0, ptr %3, align 8
  store i32 %1, ptr %4, align 4
  call void @llvm.lifetime.start.p0(i64 8, ptr %5) #8
  %7 = load ptr, ptr %3, align 8
  %8 = getelementptr inbounds nuw %struct.http_parser, ptr %7, i32 0, i32 6
  %9 = load ptr, ptr %8, align 8
  store ptr %9, ptr %5, align 8
  call void @llvm.lifetime.start.p0(i64 48, ptr %6) #8
  %10 = getelementptr inbounds nuw %struct.send_http_response_args_t, ptr %6, i32 0, i32 0
  %11 = load ptr, ptr %5, align 8
  %12 = getelementptr inbounds nuw %struct.request_t, ptr %11, i32 0, i32 8
  %13 = load ptr, ptr %12, align 8
  %14 = getelementptr inbounds nuw %struct.http_context_t, ptr %13, i32 0, i32 1
  %15 = load ptr, ptr %14, align 8
  store ptr %15, ptr %10, align 8
  %16 = getelementptr inbounds nuw %struct.send_http_response_args_t, ptr %6, i32 0, i32 1
  %17 = load ptr, ptr %3, align 8
  %18 = getelementptr inbounds nuw %struct.http_parser, ptr %17, i32 0, i32 3
  %19 = load i16, ptr %18, align 8
  store i16 %19, ptr %16, align 8
  %20 = getelementptr inbounds nuw %struct.send_http_response_args_t, ptr %6, i32 0, i32 2
  %21 = load ptr, ptr %3, align 8
  %22 = getelementptr inbounds nuw %struct.http_parser, ptr %21, i32 0, i32 4
  %23 = load i16, ptr %22, align 2
  store i16 %23, ptr %20, align 2
  %24 = getelementptr inbounds nuw %struct.send_http_response_args_t, ptr %6, i32 0, i32 3
  %25 = load i32, ptr %4, align 4
  store i32 %25, ptr %24, align 4
  %26 = getelementptr inbounds nuw %struct.send_http_response_args_t, ptr %6, i32 0, i32 4
  %27 = call ptr @list_create(ptr noundef @_free_http_header)
  store ptr %27, ptr %26, align 8
  %28 = getelementptr inbounds nuw %struct.send_http_response_args_t, ptr %6, i32 0, i32 5
  store ptr null, ptr %28, align 8
  %29 = getelementptr inbounds nuw %struct.send_http_response_args_t, ptr %6, i32 0, i32 6
  store i64 0, ptr %29, align 8
  %30 = getelementptr inbounds nuw %struct.send_http_response_args_t, ptr %6, i32 0, i32 7
  store ptr null, ptr %30, align 8
  %31 = getelementptr inbounds nuw %struct.send_http_response_args_t, ptr %6, i32 0, i32 1
  %32 = load i16, ptr %31, align 8
  %33 = zext i16 %32 to i32
  %34 = icmp eq i32 %33, 0
  br i1 %34, label %35, label %42

35:                                               ; preds = %2
  %36 = getelementptr inbounds nuw %struct.send_http_response_args_t, ptr %6, i32 0, i32 2
  %37 = load i16, ptr %36, align 2
  %38 = zext i16 %37 to i32
  %39 = icmp eq i32 %38, 0
  br i1 %39, label %40, label %42

40:                                               ; preds = %35
  %41 = getelementptr inbounds nuw %struct.send_http_response_args_t, ptr %6, i32 0, i32 2
  store i16 9, ptr %41, align 2
  br label %42

42:                                               ; preds = %40, %35, %2
  %43 = call i32 @send_http_response(ptr noundef %6)
  br label %44

44:                                               ; preds = %42
  %45 = getelementptr inbounds nuw %struct.send_http_response_args_t, ptr %6, i32 0, i32 4
  %46 = load ptr, ptr %45, align 8
  %47 = icmp ne ptr %46, null
  br i1 %47, label %48, label %51

48:                                               ; preds = %44
  %49 = getelementptr inbounds nuw %struct.send_http_response_args_t, ptr %6, i32 0, i32 4
  %50 = load ptr, ptr %49, align 8
  call void @list_destroy(ptr noundef %50)
  br label %51

51:                                               ; preds = %48, %44
  %52 = getelementptr inbounds nuw %struct.send_http_response_args_t, ptr %6, i32 0, i32 4
  store ptr null, ptr %52, align 8
  br label %53

53:                                               ; preds = %51
  br label %54

54:                                               ; preds = %53
  %55 = load ptr, ptr %5, align 8
  %56 = getelementptr inbounds nuw %struct.request_t, ptr %55, i32 0, i32 6
  %57 = load i8, ptr %56, align 4, !range !11, !noundef !12
  %58 = trunc i8 %57 to i1
  br i1 %58, label %77, label %59

59:                                               ; preds = %54
  %60 = load ptr, ptr %3, align 8
  %61 = getelementptr inbounds nuw %struct.http_parser, ptr %60, i32 0, i32 3
  %62 = load i16, ptr %61, align 8
  %63 = zext i16 %62 to i32
  %64 = icmp eq i32 %63, 1
  br i1 %64, label %65, label %71

65:                                               ; preds = %59
  %66 = load ptr, ptr %3, align 8
  %67 = getelementptr inbounds nuw %struct.http_parser, ptr %66, i32 0, i32 4
  %68 = load i16, ptr %67, align 2
  %69 = zext i16 %68 to i32
  %70 = icmp sge i32 %69, 1
  br i1 %70, label %77, label %71

71:                                               ; preds = %65, %59
  %72 = load ptr, ptr %3, align 8
  %73 = getelementptr inbounds nuw %struct.http_parser, ptr %72, i32 0, i32 3
  %74 = load i16, ptr %73, align 8
  %75 = zext i16 %74 to i32
  %76 = icmp sgt i32 %75, 1
  br i1 %76, label %77, label %82

77:                                               ; preds = %71, %65, %54
  %78 = load ptr, ptr %5, align 8
  %79 = getelementptr inbounds nuw %struct.request_t, ptr %78, i32 0, i32 8
  %80 = load ptr, ptr %79, align 8
  %81 = call i32 @send_http_connection_close(ptr noundef %80)
  br label %82

82:                                               ; preds = %77, %71
  %83 = load ptr, ptr %5, align 8
  %84 = getelementptr inbounds nuw %struct.request_t, ptr %83, i32 0, i32 8
  %85 = load ptr, ptr %84, align 8
  %86 = getelementptr inbounds nuw %struct.http_context_t, ptr %85, i32 0, i32 1
  %87 = load ptr, ptr %86, align 8
  call void @conmgr_queue_close_fd(ptr noundef %87)
  call void @llvm.lifetime.end.p0(i64 48, ptr %6) #8
  call void @llvm.lifetime.end.p0(i64 8, ptr %5) #8
  ret i32 1
}