; Function Attrs: nounwind uwtable
define internal fastcc void @_send_reject(ptr noundef readonly captures(none) %0, i32 noundef range(i32 400, 418) %1) unnamed_addr #0 {
  %3 = alloca ptr, align 8
  %4 = alloca %struct.send_http_response_args_t, align 8
  %5 = getelementptr inbounds nuw i8, ptr %0, i64 24
  %6 = load ptr, ptr %5, align 8
  call void @llvm.lifetime.start.p0(i64 48, ptr nonnull %4) #8
  %7 = getelementptr inbounds nuw i8, ptr %6, i64 56
  %8 = load ptr, ptr %7, align 8
  %9 = getelementptr inbounds nuw i8, ptr %8, i64 8
  %10 = load ptr, ptr %9, align 8
  store ptr %10, ptr %4, align 8
  %11 = getelementptr inbounds nuw i8, ptr %4, i64 8
  %12 = getelementptr inbounds nuw i8, ptr %0, i64 16
  %13 = load i16, ptr %12, align 8
  store i16 %13, ptr %11, align 8
  %14 = getelementptr inbounds nuw i8, ptr %4, i64 10
  %15 = getelementptr inbounds nuw i8, ptr %0, i64 18
  %16 = load i16, ptr %15, align 2
  store i16 %16, ptr %14, align 2
  %17 = getelementptr inbounds nuw i8, ptr %4, i64 12
  store i32 %1, ptr %17, align 4
  %18 = getelementptr inbounds nuw i8, ptr %4, i64 16
  %19 = tail call ptr @list_create(ptr noundef nonnull @_free_http_header) #8
  store ptr %19, ptr %18, align 8
  %20 = getelementptr inbounds nuw i8, ptr %4, i64 24
  %21 = icmp eq i16 %13, 0
  %22 = icmp eq i16 %16, 0
  %or.cond = select i1 %21, i1 %22, i1 false
  call void @llvm.memset.p0.i64(ptr noundef nonnull align 8 dereferenceable(24) %20, i8 0, i64 24, i1 false)
  br i1 %or.cond, label %23, label %24

23:                                               ; preds = %2
  store i16 9, ptr %14, align 2
  br label %24

24:                                               ; preds = %23, %2
  %25 = call i32 @send_http_response(ptr noundef nonnull %4)
  %.not = icmp eq ptr %19, null
  br i1 %.not, label %27, label %26

26:                                               ; preds = %24
  tail call void @list_destroy(ptr noundef nonnull %19) #8
  br label %27

27:                                               ; preds = %26, %24
  %28 = getelementptr inbounds nuw i8, ptr %6, i64 44
  %29 = load i8, ptr %28, align 4, !range !11, !noundef !12
  %30 = trunc nuw i8 %29 to i1
  br i1 %30, label %35, label %31

31:                                               ; preds = %27
  %32 = load i16, ptr %12, align 8
  switch i16 %32, label %35 [
    i16 1, label %33
    i16 0, label %.thread
  ]

33:                                               ; preds = %31
  %34 = load i16, ptr %15, align 2
  %.not13 = icmp eq i16 %34, 0
  br i1 %.not13, label %.thread, label %35

35:                                               ; preds = %31, %33, %27
  %36 = load ptr, ptr %7, align 8
  %37 = getelementptr inbounds nuw i8, ptr %36, i64 8
  %38 = load ptr, ptr %37, align 8
  call void @llvm.lifetime.start.p0(i64 8, ptr nonnull %3) #8
  %39 = tail call ptr (ptr, ...) @xstrdup_printf(ptr noundef nonnull @.str.18, ptr noundef nonnull @.str, ptr noundef nonnull @.str.1) #8
  store ptr %39, ptr %3, align 8
  %40 = tail call i64 @strlen(ptr noundef nonnull dereferenceable(1) %39) #9
  %41 = tail call i32 @conmgr_queue_write_data(ptr noundef %38, ptr noundef nonnull %39, i64 noundef %40) #8
  call void @slurm_xfree(ptr noundef nonnull %3) #8
  call void @llvm.lifetime.end.p0(i64 8, ptr nonnull %3) #8
  br label %.thread

.thread:                                          ; preds = %31, %33, %35
  %42 = load ptr, ptr %7, align 8
  %43 = getelementptr inbounds nuw i8, ptr %42, i64 8
  %44 = load ptr, ptr %43, align 8
  call void @conmgr_queue_close_fd(ptr noundef %44) #8
  call void @llvm.lifetime.end.p0(i64 48, ptr nonnull %4) #8
  ret void
}